target datalayout = "e-m:e-p270:32:32-p271:32:32-p272:64:64-i64:64-i128:128-f80:128-n8:16:32:64-S128"
target triple = "x86_64-pc-linux-gnu"

%"class.llvm::DwarfExpression" = type { ptr, i8, ptr, %"class.llvm::SmallVector", i64, i32, i16, %"class.std::optional" }
%"class.llvm::SmallVector" = type { %"class.llvm::SmallVectorImpl", %"struct.llvm::SmallVectorStorage" }
%"class.llvm::SmallVectorImpl" = type { %"class.llvm::SmallVectorTemplateBase" }
%"class.llvm::SmallVectorTemplateBase" = type { %"class.llvm::SmallVectorTemplateCommon" }
%"class.llvm::SmallVectorTemplateCommon" = type { %"class.llvm::SmallVectorBase" }
%"class.llvm::SmallVectorBase" = type { ptr, i32, i32 }
%"struct.llvm::SmallVectorStorage" = type { [32 x i8] }
%"class.std::optional" = type { %"struct.std::_Optional_base" }
%"struct.std::_Optional_base" = type { %"struct.std::_Optional_payload" }
%"struct.std::_Optional_payload" = type { %"struct.std::_Optional_payload_base" }
%"struct.std::_Optional_payload_base" = type { %"union.std::_Optional_payload_base<unsigned char>::_Storage", i8 }
%"union.std::_Optional_payload_base<unsigned char>::_Storage" = type { %"struct.std::_Optional_payload_base<unsigned char>::_Empty_byte" }
%"struct.std::_Optional_payload_base<unsigned char>::_Empty_byte" = type { i8 }
%"class.std::optional.150" = type { %"struct.std::_Optional_base.151" }
%"struct.std::_Optional_base.151" = type { %"struct.std::_Optional_payload.153" }
%"struct.std::_Optional_payload.153" = type { %"struct.std::_Optional_payload_base.base", [7 x i8] }
%"struct.std::_Optional_payload_base.base" = type <{ %"union.std::_Optional_payload_base<llvm::DbgVariableFragmentInfo>::_Storage", i8 }>
%"union.std::_Optional_payload_base<llvm::DbgVariableFragmentInfo>::_Storage" = type { %"struct.llvm::DbgVariableFragmentInfo" }
%"struct.llvm::DbgVariableFragmentInfo" = type { i64, i64 }
%"class.llvm::DIExpression::ExprOperand" = type { ptr }
%"class.llvm::DIExpression::expr_op_iterator" = type { %"class.llvm::DIExpression::ExprOperand" }
%"struct.llvm::detail::PunnedPointer" = type { [8 x i8] }
%"struct.std::_Optional_payload_base.154" = type <{ %"union.std::_Optional_payload_base<llvm::DbgVariableFragmentInfo>::_Storage", i8, [7 x i8] }>
%"class.llvm::ArrayRef" = type { ptr, i64 }
%"class.llvm::DIExpression" = type { %"class.llvm::MDNode", %"class.std::vector.166" }
%"class.llvm::MDNode" = type { %"class.llvm::Metadata", %"class.llvm::ContextAndReplaceableUses" }
%"class.llvm::Metadata" = type { i8, i8, i16, i32 }
%"class.llvm::ContextAndReplaceableUses" = type { %"class.llvm::PointerUnion" }
%"class.llvm::PointerUnion" = type { %"class.llvm::pointer_union_detail::PointerUnionMembers" }
%"class.llvm::pointer_union_detail::PointerUnionMembers" = type { %"class.llvm::pointer_union_detail::PointerUnionMembers.164" }
%"class.llvm::pointer_union_detail::PointerUnionMembers.164" = type { %"class.llvm::pointer_union_detail::PointerUnionMembers.165" }
%"class.llvm::pointer_union_detail::PointerUnionMembers.165" = type { %"class.llvm::PointerIntPair" }
%"class.llvm::PointerIntPair" = type { %"struct.llvm::detail::PunnedPointer" }
%"class.std::vector.166" = type { %"struct.std::_Vector_base.167" }
%"struct.std::_Vector_base.167" = type { %"struct.std::_Vector_base<unsigned long, std::allocator<unsigned long>>::_Vector_impl" }
%"struct.std::_Vector_base<unsigned long, std::allocator<unsigned long>>::_Vector_impl" = type { %"struct.std::_Vector_base<unsigned long, std::allocator<unsigned long>>::_Vector_impl_data" }
%"struct.std::_Vector_base<unsigned long, std::allocator<unsigned long>>::_Vector_impl_data" = type { ptr, ptr, ptr }

; Function Attrs: mustprogress nounwind uwtable
define linkonce_odr hidden noundef ptr @_ZNKSt6vectorImSaImEE11_M_data_ptrImEEPT_S4_(ptr noundef nonnull align 8 dereferenceable(24) %0, ptr noundef %1) #0 comdat align 2 {
  %3 = alloca ptr, align 8
  %4 = alloca ptr, align 8
  store ptr %0, ptr %3, align 8
  store ptr %1, ptr %4, align 8
  %5 = load ptr, ptr %4, align 8
  ret ptr %5
}

; Function Attrs: mustprogress nounwind uwtable
define linkonce_odr hidden noundef i64 @_ZNKSt6vectorImSaImEE4sizeEv(ptr noundef nonnull align 8 dereferenceable(24) %0) #0 comdat align 2 {
  %2 = alloca ptr, align 8
  store ptr %0, ptr %2, align 8
  %3 = load ptr, ptr %2, align 8
  %4 = getelementptr inbounds nuw %"struct.std::_Vector_base.167", ptr %3, i32 0, i32 0
  %5 = getelementptr inbounds nuw %"struct.std::_Vector_base<unsigned long, std::allocator<unsigned long>>::_Vector_impl_data", ptr %4, i32 0, i32 1
  %6 = load ptr, ptr %5, align 8
  %7 = getelementptr inbounds nuw %"struct.std::_Vector_base.167", ptr %3, i32 0, i32 0
  %8 = getelementptr inbounds nuw %"struct.std::_Vector_base<unsigned long, std::allocator<unsigned long>>::_Vector_impl_data", ptr %7, i32 0, i32 0
  %9 = load ptr, ptr %8, align 8
  %10 = ptrtoint ptr %6 to i64
  %11 = ptrtoint ptr %9 to i64
  %12 = sub i64 %10, %11
  %13 = sdiv exact i64 %12, 8
  ret i64 %13
}

; Function Attrs: mustprogress nounwind uwtable
define linkonce_odr hidden noundef ptr @_ZNKSt6vectorImSaImEE4dataEv(ptr noundef nonnull align 8 dereferenceable(24) %0) #0 comdat align 2 {
  %2 = alloca ptr, align 8
  store ptr %0, ptr %2, align 8
  %3 = load ptr, ptr %2, align 8
  %4 = getelementptr inbounds nuw %"struct.std::_Vector_base.167", ptr %3, i32 0, i32 0
  %5 = getelementptr inbounds nuw %"struct.std::_Vector_base<unsigned long, std::allocator<unsigned long>>::_Vector_impl_data", ptr %4, i32 0, i32 0
  %6 = load ptr, ptr %5, align 8
  %7 = call noundef ptr @_ZNKSt6vectorImSaImEE11_M_data_ptrImEEPT_S4_(ptr noundef nonnull align 8 dereferenceable(24) %3, ptr noundef %6) #10
  ret ptr %7
}

; Function Attrs: mustprogress nounwind uwtable
define linkonce_odr hidden void @_ZN4llvm8ArrayRefImEC2ISaImEEERKSt6vectorImT_E(ptr noundef nonnull align 8 dereferenceable(16) %0, ptr noundef nonnull align 8 dereferenceable(24) %1) unnamed_addr #0 comdat align 2 {
  %3 = alloca ptr, align 8
  %4 = alloca ptr, align 8
  store ptr %0, ptr %3, align 8
  store ptr %1, ptr %4, align 8
  %5 = load ptr, ptr %3, align 8
  %6 = getelementptr inbounds nuw %"class.llvm::ArrayRef", ptr %5, i32 0, i32 0
  %7 = load ptr, ptr %4, align 8
  %8 = call noundef ptr @_ZNKSt6vectorImSaImEE4dataEv(ptr noundef nonnull align 8 dereferenceable(24) %7) #10
  store ptr %8, ptr %6, align 8
  %9 = getelementptr inbounds nuw %"class.llvm::ArrayRef", ptr %5, i32 0, i32 1
  %10 = load ptr, ptr %4, align 8
  %11 = call noundef i64 @_ZNKSt6vectorImSaImEE4sizeEv(ptr noundef nonnull align 8 dereferenceable(24) %10) #10
  store i64 %11, ptr %9, align 8
  ret void
}

; Function Attrs: mustprogress nounwind uwtable
define linkonce_odr hidden noundef ptr @_ZNK4llvm8ArrayRefImE3endEv(ptr noundef nonnull align 8 dereferenceable(16) %0) #0 comdat align 2 {
  %2 = alloca ptr, align 8
  store ptr %0, ptr %2, align 8
  %3 = load ptr, ptr %2, align 8
  %4 = getelementptr inbounds nuw %"class.llvm::ArrayRef", ptr %3, i32 0, i32 0
  %5 = load ptr, ptr %4, align 8
  %6 = getelementptr inbounds nuw %"class.llvm::ArrayRef", ptr %3, i32 0, i32 1
  %7 = load i64, ptr %6, align 8
  %8 = getelementptr inbounds i64, ptr %5, i64 %7
  ret ptr %8
}

; Function Attrs: mustprogress nounwind uwtable
define linkonce_odr hidden void @_ZN4llvm12DIExpression11ExprOperandC2EPKm(ptr noundef nonnull align 8 dereferenceable(8) %0, ptr noundef %1) unnamed_addr #0 comdat align 2 {
  %3 = alloca ptr, align 8
  %4 = alloca ptr, align 8
  store ptr %0, ptr %3, align 8
  store ptr %1, ptr %4, align 8
  %5 = load ptr, ptr %3, align 8
  %6 = getelementptr inbounds nuw %"class.llvm::DIExpression::ExprOperand", ptr %5, i32 0, i32 0
  %7 = load ptr, ptr %4, align 8
  store ptr %7, ptr %6, align 8
  ret void
}

; Function Attrs: mustprogress nounwind uwtable
define linkonce_odr hidden noundef ptr @_ZNK4llvm8ArrayRefImE5beginEv(ptr noundef nonnull align 8 dereferenceable(16) %0) #0 comdat align 2 {
  %2 = alloca ptr, align 8
  store ptr %0, ptr %2, align 8
  %3 = load ptr, ptr %2, align 8
  %4 = getelementptr inbounds nuw %"class.llvm::ArrayRef", ptr %3, i32 0, i32 0
  %5 = load ptr, ptr %4, align 8
  ret ptr %5
}

; Function Attrs: mustprogress nounwind uwtable
define linkonce_odr hidden { ptr, i64 } @_ZNK4llvm12DIExpression11getElementsEv(ptr noundef nonnull align 8 dereferenceable(40) %0) #0 comdat align 2 {
  %2 = alloca %"class.llvm::ArrayRef", align 8
  %3 = alloca ptr, align 8
  store ptr %0, ptr %3, align 8
  %4 = load ptr, ptr %3, align 8
  %5 = getelementptr inbounds nuw %"class.llvm::DIExpression", ptr %4, i32 0, i32 1
  call void @_ZN4llvm8ArrayRefImEC2ISaImEEERKSt6vectorImT_E(ptr noundef nonnull align 8 dereferenceable(16) %2, ptr noundef nonnull align 8 dereferenceable(24) %5)
  %6 = load { ptr, i64 }, ptr %2, align 8
  ret { ptr, i64 } %6
}

; Function Attrs: mustprogress nounwind uwtable
define linkonce_odr hidden noundef nonnull align 8 dereferenceable(16) ptr @_ZNSt22_Optional_payload_baseIN4llvm23DbgVariableFragmentInfoEE6_M_getEv(ptr noundef nonnull align 8 dereferenceable(17) %0) #0 comdat align 2 {
  %2 = alloca ptr, align 8
  store ptr %0, ptr %2, align 8
  %3 = load ptr, ptr %2, align 8
  %4 = getelementptr inbounds nuw %"struct.std::_Optional_payload_base.154", ptr %3, i32 0, i32 0
  ret ptr %4
}

; Function Attrs: mustprogress nounwind uwtable
define linkonce_odr hidden noundef ptr @_ZNK4llvm12DIExpression12elements_endEv(ptr noundef nonnull align 8 dereferenceable(40) %0) #0 comdat align 2 {
  %2 = alloca ptr, align 8
  %3 = alloca %"class.llvm::ArrayRef", align 8
  store ptr %0, ptr %2, align 8
  %4 = load ptr, ptr %2, align 8
  %5 = call { ptr, i64 } @_ZNK4llvm12DIExpression11getElementsEv(ptr noundef nonnull align 8 dereferenceable(40) %4)
  %6 = getelementptr inbounds nuw { ptr, i64 }, ptr %3, i32 0, i32 0
  %7 = extractvalue { ptr, i64 } %5, 0
  store ptr %7, ptr %6, align 8
  %8 = getelementptr inbounds nuw { ptr, i64 }, ptr %3, i32 0, i32 1
  %9 = extractvalue { ptr, i64 } %5, 1
  store i64 %9, ptr %8, align 8
  %10 = call noundef ptr @_ZNK4llvm8ArrayRefImE3endEv(ptr noundef nonnull align 8 dereferenceable(16) %3)
  ret ptr %10
}

; Function Attrs: mustprogress nounwind uwtable
define linkonce_odr hidden void @_ZN4llvm12DIExpression16expr_op_iteratorC2EPKm(ptr noundef nonnull align 8 dereferenceable(8) %0, ptr noundef %1) unnamed_addr #0 comdat align 2 {
  %3 = alloca ptr, align 8
  %4 = alloca ptr, align 8
  store ptr %0, ptr %3, align 8
  store ptr %1, ptr %4, align 8
  %5 = load ptr, ptr %3, align 8
  %6 = getelementptr inbounds nuw %"class.llvm::DIExpression::expr_op_iterator", ptr %5, i32 0, i32 0
  %7 = load ptr, ptr %4, align 8
  call void @_ZN4llvm12DIExpression11ExprOperandC2EPKm(ptr noundef nonnull align 8 dereferenceable(8) %6, ptr noundef %7)
  ret void
}

; Function Attrs: mustprogress nounwind uwtable
define linkonce_odr hidden noundef ptr @_ZNK4llvm12DIExpression14elements_beginEv(ptr noundef nonnull align 8 dereferenceable(40) %0) #0 comdat align 2 {
  %2 = alloca ptr, align 8
  %3 = alloca %"class.llvm::ArrayRef", align 8
  store ptr %0, ptr %2, align 8
  %4 = load ptr, ptr %2, align 8
  %5 = call { ptr, i64 } @_ZNK4llvm12DIExpression11getElementsEv(ptr noundef nonnull align 8 dereferenceable(40) %4)
  %6 = getelementptr inbounds nuw { ptr, i64 }, ptr %3, i32 0, i32 0
  %7 = extractvalue { ptr, i64 } %5, 0
  store ptr %7, ptr %6, align 8
  %8 = getelementptr inbounds nuw { ptr, i64 }, ptr %3, i32 0, i32 1
  %9 = extractvalue { ptr, i64 } %5, 1
  store i64 %9, ptr %8, align 8
  %10 = call noundef ptr @_ZNK4llvm8ArrayRefImE5beginEv(ptr noundef nonnull align 8 dereferenceable(16) %3)
  ret ptr %10
}

; Function Attrs: mustprogress nounwind uwtable
define linkonce_odr hidden noundef zeroext i1 @_ZNKSt19_Optional_base_implIN4llvm23DbgVariableFragmentInfoESt14_Optional_baseIS1_Lb1ELb1EEE13_M_is_engagedEv(ptr noundef nonnull align 1 dereferenceable(1) %0) #0 comdat align 2 {
  %2 = alloca ptr, align 8
  store ptr %0, ptr %2, align 8
  %3 = load ptr, ptr %2, align 8
  %4 = getelementptr inbounds nuw %"struct.std::_Optional_base.151", ptr %3, i32 0, i32 0
  %5 = getelementptr inbounds nuw %"struct.std::_Optional_payload_base.154", ptr %4, i32 0, i32 1
  %6 = load i8, ptr %5, align 8
  %7 = trunc i8 %6 to i1
  ret i1 %7
}

; Function Attrs: mustprogress nounwind uwtable
define linkonce_odr hidden noundef nonnull align 8 dereferenceable(16) ptr @_ZNSt19_Optional_base_implIN4llvm23DbgVariableFragmentInfoESt14_Optional_baseIS1_Lb1ELb1EEE6_M_getEv(ptr noundef nonnull align 1 dereferenceable(1) %0) #0 comdat align 2 {
  %2 = alloca ptr, align 8
  store ptr %0, ptr %2, align 8
  %3 = load ptr, ptr %2, align 8
  br label %4

4:                                                ; preds = %1
  br label %5

5:                                                ; preds = %4
  %6 = getelementptr inbounds nuw %"struct.std::_Optional_base.151", ptr %3, i32 0, i32 0
  %7 = call noundef nonnull align 8 dereferenceable(16) ptr @_ZNSt22_Optional_payload_baseIN4llvm23DbgVariableFragmentInfoEE6_M_getEv(ptr noundef nonnull align 8 dereferenceable(17) %6) #10
  ret ptr %7
}

; Function Attrs: mustprogress nounwind uwtable
define linkonce_odr hidden ptr @_ZNK4llvm12DIExpression11expr_op_endEv(ptr noundef nonnull align 8 dereferenceable(40) %0) #0 comdat align 2 {
  %2 = alloca %"class.llvm::DIExpression::expr_op_iterator", align 8
  %3 = alloca ptr, align 8
  store ptr %0, ptr %3, align 8
  %4 = load ptr, ptr %3, align 8
  %5 = call noundef ptr @_ZNK4llvm12DIExpression12elements_endEv(ptr noundef nonnull align 8 dereferenceable(40) %4)
  call void @_ZN4llvm12DIExpression16expr_op_iteratorC2EPKm(ptr noundef nonnull align 8 dereferenceable(8) %2, ptr noundef %5)
  %6 = getelementptr inbounds nuw %"class.llvm::DIExpression::expr_op_iterator", ptr %2, i32 0, i32 0
  %7 = getelementptr inbounds nuw %"class.llvm::DIExpression::ExprOperand", ptr %6, i32 0, i32 0
  %8 = load ptr, ptr %7, align 8
  ret ptr %8
}

; Function Attrs: mustprogress nounwind uwtable
define linkonce_odr hidden ptr @_ZNK4llvm12DIExpression13expr_op_beginEv(ptr noundef nonnull align 8 dereferenceable(40) %0) #0 comdat align 2 {
  %2 = alloca %"class.llvm::DIExpression::expr_op_iterator", align 8
  %3 = alloca ptr, align 8
  store ptr %0, ptr %3, align 8
  %4 = load ptr, ptr %3, align 8
  %5 = call noundef ptr @_ZNK4llvm12DIExpression14elements_beginEv(ptr noundef nonnull align 8 dereferenceable(40) %4)
  call void @_ZN4llvm12DIExpression16expr_op_iteratorC2EPKm(ptr noundef nonnull align 8 dereferenceable(8) %2, ptr noundef %5)
  %6 = getelementptr inbounds nuw %"class.llvm::DIExpression::expr_op_iterator", ptr %2, i32 0, i32 0
  %7 = getelementptr inbounds nuw %"class.llvm::DIExpression::ExprOperand", ptr %6, i32 0, i32 0
  %8 = load ptr, ptr %7, align 8
  ret ptr %8
}

; Function Attrs: mustprogress nounwind uwtable
define linkonce_odr hidden noundef zeroext i1 @_ZNKSt8optionalIN4llvm23DbgVariableFragmentInfoEE9has_valueEv(ptr noundef nonnull align 8 dereferenceable(24) %0) #0 comdat align 2 {
  %2 = alloca ptr, align 8
  store ptr %0, ptr %2, align 8
  %3 = load ptr, ptr %2, align 8
  %4 = call noundef zeroext i1 @_ZNKSt19_Optional_base_implIN4llvm23DbgVariableFragmentInfoESt14_Optional_baseIS1_Lb1ELb1EEE13_M_is_engagedEv(ptr noundef nonnull align 1 dereferenceable(1) %3) #10
  ret i1 %4
}

; Function Attrs: mustprogress nounwind uwtable
define dso_local void @_ZN4llvm15DwarfExpression10addOpPieceEjj(ptr noundef nonnull align 8 dereferenceable(88) %0, i32 noundef %1, i32 noundef %2) #0 align 2 {
  %4 = alloca ptr, align 8
  %5 = alloca i32, align 4
  %6 = alloca i32, align 4
  %7 = alloca i32, align 4
  %8 = alloca i32, align 4
  store ptr %0, ptr %4, align 8
  store i32 %1, ptr %5, align 4
  store i32 %2, ptr %6, align 4
  %9 = load ptr, ptr %4, align 8
  %10 = load i32, ptr %5, align 4
  %11 = icmp ne i32 %10, 0
  br i1 %11, label %13, label %12

12:                                               ; preds = %3
  br label %51

13:                                               ; preds = %3
  store i32 8, ptr %7, align 4
  %14 = load i32, ptr %6, align 4
  %15 = icmp ugt i32 %14, 0
  br i1 %15, label %20, label %16

16:                                               ; preds = %13
  %17 = load i32, ptr %5, align 4
  %18 = urem i32 %17, 8
  %19 = icmp ne i32 %18, 0
  br i1 %19, label %20, label %34

20:                                               ; preds = %16, %13
  %21 = load ptr, ptr %9, align 8
  %22 = getelementptr inbounds ptr, ptr %21, i64 0
  %23 = load ptr, ptr %22, align 8
  call void %23(ptr noundef nonnull align 8 dereferenceable(88) %9, i8 noundef zeroext -99, ptr noundef null)
  %24 = load i32, ptr %5, align 4
  %25 = zext i32 %24 to i64
  %26 = load ptr, ptr %9, align 8
  %27 = getelementptr inbounds ptr, ptr %26, i64 2
  %28 = load ptr, ptr %27, align 8
  call void %28(ptr noundef nonnull align 8 dereferenceable(88) %9, i64 noundef %25)
  %29 = load i32, ptr %6, align 4
  %30 = zext i32 %29 to i64
  %31 = load ptr, ptr %9, align 8
  %32 = getelementptr inbounds ptr, ptr %31, i64 2
  %33 = load ptr, ptr %32, align 8
  call void %33(ptr noundef nonnull align 8 dereferenceable(88) %9, i64 noundef %30)
  br label %45

34:                                               ; preds = %16
  %35 = load ptr, ptr %9, align 8
  %36 = getelementptr inbounds ptr, ptr %35, i64 0
  %37 = load ptr, ptr %36, align 8
  call void %37(ptr noundef nonnull align 8 dereferenceable(88) %9, i8 noundef zeroext -109, ptr noundef null)
  %38 = load i32, ptr %5, align 4
  %39 = udiv i32 %38, 8
  store i32 %39, ptr %8, align 4
  %40 = load i32, ptr %8, align 4
  %41 = zext i32 %40 to i64
  %42 = load ptr, ptr %9, align 8
  %43 = getelementptr inbounds ptr, ptr %42, i64 2
  %44 = load ptr, ptr %43, align 8
  call void %44(ptr noundef nonnull align 8 dereferenceable(88) %9, i64 noundef %41)
  br label %45

45:                                               ; preds = %34, %20
  %46 = load i32, ptr %5, align 4
  %47 = zext i32 %46 to i64
  %48 = getelementptr inbounds nuw %"class.llvm::DwarfExpression", ptr %9, i32 0, i32 4
  %49 = load i64, ptr %48, align 8
  %50 = add i64 %49, %47
  store i64 %50, ptr %48, align 8
  br label %51

51:                                               ; preds = %45, %12
  ret void
}

; Function Attrs: mustprogress nounwind uwtable
define linkonce_odr hidden noundef ptr @_ZNSt8optionalIN4llvm23DbgVariableFragmentInfoEEptEv(ptr noundef nonnull align 8 dereferenceable(24) %0) #0 comdat align 2 {
  %2 = alloca ptr, align 8
  store ptr %0, ptr %2, align 8
  %3 = load ptr, ptr %2, align 8
  %4 = call noundef nonnull align 8 dereferenceable(16) ptr @_ZNSt19_Optional_base_implIN4llvm23DbgVariableFragmentInfoESt14_Optional_baseIS1_Lb1ELb1EEE6_M_getEv(ptr noundef nonnull align 1 dereferenceable(1) %3) #10
  ret ptr %4
}

; Function Attrs: mustprogress nounwind uwtable
define linkonce_odr hidden void @_ZNK4llvm12DIExpression15getFragmentInfoEv(ptr dead_on_unwind noalias writable sret(%"class.std::optional.150") align 8 %0, ptr noundef nonnull align 8 dereferenceable(40) %1) #0 comdat align 2 {
  %3 = alloca ptr, align 8
  %4 = alloca %"class.llvm::DIExpression::expr_op_iterator", align 8
  %5 = alloca %"class.llvm::DIExpression::expr_op_iterator", align 8
  store ptr %1, ptr %3, align 8
  %6 = load ptr, ptr %3, align 8
  %7 = call ptr @_ZNK4llvm12DIExpression13expr_op_beginEv(ptr noundef nonnull align 8 dereferenceable(40) %6)
  %8 = getelementptr inbounds nuw %"class.llvm::DIExpression::expr_op_iterator", ptr %4, i32 0, i32 0
  %9 = getelementptr inbounds nuw %"class.llvm::DIExpression::ExprOperand", ptr %8, i32 0, i32 0
  store ptr %7, ptr %9, align 8
  %10 = call ptr @_ZNK4llvm12DIExpression11expr_op_endEv(ptr noundef nonnull align 8 dereferenceable(40) %6)
  %11 = getelementptr inbounds nuw %"class.llvm::DIExpression::expr_op_iterator", ptr %5, i32 0, i32 0
  %12 = getelementptr inbounds nuw %"class.llvm::DIExpression::ExprOperand", ptr %11, i32 0, i32 0
  store ptr %10, ptr %12, align 8
  %13 = getelementptr inbounds nuw %"class.llvm::DIExpression::expr_op_iterator", ptr %4, i32 0, i32 0
  %14 = getelementptr inbounds nuw %"class.llvm::DIExpression::ExprOperand", ptr %13, i32 0, i32 0
  %15 = load ptr, ptr %14, align 8
  %16 = getelementptr inbounds nuw %"class.llvm::DIExpression::expr_op_iterator", ptr %5, i32 0, i32 0
  %17 = getelementptr inbounds nuw %"class.llvm::DIExpression::ExprOperand", ptr %16, i32 0, i32 0
  %18 = load ptr, ptr %17, align 8
  call void @_ZN4llvm12DIExpression15getFragmentInfoENS0_16expr_op_iteratorES1_(ptr dead_on_unwind writable sret(%"class.std::optional.150") align 8 %0, ptr %15, ptr %18)
  ret void
}

; Function Attrs: mustprogress nounwind uwtable
define linkonce_odr hidden noundef zeroext i1 @_ZNK4llvm12DIExpression10isFragmentEv(ptr noundef nonnull align 8 dereferenceable(40) %0) #0 comdat align 2 {
  %2 = alloca ptr, align 8
  %3 = alloca %"class.std::optional.150", align 8
  store ptr %0, ptr %2, align 8
  %4 = load ptr, ptr %2, align 8
  call void @_ZNK4llvm12DIExpression15getFragmentInfoEv(ptr dead_on_unwind writable sret(%"class.std::optional.150") align 8 %3, ptr noundef nonnull align 8 dereferenceable(40) %4)
  %5 = call noundef zeroext i1 @_ZNKSt8optionalIN4llvm23DbgVariableFragmentInfoEE9has_valueEv(ptr noundef nonnull align 8 dereferenceable(24) %3) #10
  ret i1 %5
}

; Function Attrs: mustprogress nounwind uwtable
define dso_local void @_ZN4llvm15DwarfExpression17addFragmentOffsetEPKNS_12DIExpressionE(ptr noundef nonnull align 8 dereferenceable(88) %0, ptr noundef %1) #0 align 2 {
  %3 = alloca ptr, align 8
  %4 = alloca ptr, align 8
  %5 = alloca i64, align 8
  %6 = alloca %"class.std::optional.150", align 8
  store ptr %0, ptr %3, align 8
  store ptr %1, ptr %4, align 8
  %7 = load ptr, ptr %3, align 8
  %8 = load ptr, ptr %4, align 8
  %9 = icmp ne ptr %8, null
  br i1 %9, label %10, label %13

10:                                               ; preds = %2
  %11 = load ptr, ptr %4, align 8
  %12 = call noundef zeroext i1 @_ZNK4llvm12DIExpression10isFragmentEv(ptr noundef nonnull align 8 dereferenceable(40) %11)
  br i1 %12, label %14, label %13

13:                                               ; preds = %10, %2
  br label %32

14:                                               ; preds = %10
  %15 = load ptr, ptr %4, align 8
  call void @_ZNK4llvm12DIExpression15getFragmentInfoEv(ptr dead_on_unwind writable sret(%"class.std::optional.150") align 8 %6, ptr noundef nonnull align 8 dereferenceable(40) %15)
  %16 = call noundef ptr @_ZNSt8optionalIN4llvm23DbgVariableFragmentInfoEEptEv(ptr noundef nonnull align 8 dereferenceable(24) %6) #10
  %17 = getelementptr inbounds nuw %"struct.llvm::DbgVariableFragmentInfo", ptr %16, i32 0, i32 1
  %18 = load i64, ptr %17, align 8
  store i64 %18, ptr %5, align 8
  %19 = load i64, ptr %5, align 8
  %20 = getelementptr inbounds nuw %"class.llvm::DwarfExpression", ptr %7, i32 0, i32 4
  %21 = load i64, ptr %20, align 8
  %22 = icmp ugt i64 %19, %21
  br i1 %22, label %23, label %29

23:                                               ; preds = %14
  %24 = load i64, ptr %5, align 8
  %25 = getelementptr inbounds nuw %"class.llvm::DwarfExpression", ptr %7, i32 0, i32 4
  %26 = load i64, ptr %25, align 8
  %27 = sub i64 %24, %26
  %28 = trunc i64 %27 to i32
  call void @_ZN4llvm15DwarfExpression10addOpPieceEjj(ptr noundef nonnull align 8 dereferenceable(88) %7, i32 noundef %28, i32 noundef 0)
  br label %29

29:                                               ; preds = %23, %14
  %30 = load i64, ptr %5, align 8
  %31 = getelementptr inbounds nuw %"class.llvm::DwarfExpression", ptr %7, i32 0, i32 4
  store i64 %30, ptr %31, align 8
  br label %32

32:                                               ; preds = %29, %13
  ret void
}