; Function Attrs: mustprogress nounwind uwtable
define dso_local void @_ZN4llvm15DwarfExpression17addFragmentOffsetEPKNS_12DIExpressionE(ptr noundef nonnull align 8 dereferenceable(88) %0, ptr noundef readonly %1) local_unnamed_addr #0 align 2 {
  %3 = alloca %"class.std::optional.150", align 8
  %4 = alloca %"class.std::optional.150", align 8
  %.not = icmp eq ptr %1, null
  br i1 %.not, label %48, label %5

5:                                                ; preds = %2
  call void @llvm.lifetime.start.p0(i64 24, ptr nonnull %3)
  %6 = getelementptr inbounds nuw i8, ptr %1, i64 16
  %7 = load ptr, ptr %6, align 8, !noalias !35
  %8 = getelementptr inbounds i8, ptr %1, i64 24
  %9 = load ptr, ptr %8, align 8, !noalias !35
  %10 = ptrtoint ptr %9 to i64
  %11 = ptrtoint ptr %7 to i64
  %12 = sub i64 %10, %11
  %13 = getelementptr inbounds i8, ptr %7, i64 %12
  call void @_ZN4llvm12DIExpression15getFragmentInfoENS0_16expr_op_iteratorES1_(ptr dead_on_unwind nonnull writable sret(%"class.std::optional.150") align 8 %3, ptr %7, ptr %13) #13
  %14 = getelementptr inbounds nuw i8, ptr %3, i64 16
  %15 = load i8, ptr %14, align 8
  %16 = trunc i8 %15 to i1
  call void @llvm.lifetime.end.p0(i64 24, ptr nonnull %3)
  br i1 %16, label %17, label %48

17:                                               ; preds = %5
  %18 = load ptr, ptr %6, align 8, !noalias !38
  %19 = load ptr, ptr %8, align 8, !noalias !38
  %20 = ptrtoint ptr %19 to i64
  %21 = ptrtoint ptr %18 to i64
  %22 = sub i64 %20, %21
  %23 = getelementptr inbounds i8, ptr %18, i64 %22
  call void @_ZN4llvm12DIExpression15getFragmentInfoENS0_16expr_op_iteratorES1_(ptr dead_on_unwind nonnull writable sret(%"class.std::optional.150") align 8 %4, ptr %18, ptr %23) #13
  %24 = getelementptr inbounds nuw i8, ptr %4, i64 8
  %25 = load i64, ptr %24, align 8
  %26 = getelementptr inbounds nuw i8, ptr %0, i64 72
  %27 = load i64, ptr %26, align 8
  %28 = icmp ugt i64 %25, %27
  br i1 %28, label %29, label %_ZN4llvm15DwarfExpression10addOpPieceEjj.exit

29:                                               ; preds = %17
  %30 = sub nuw i64 %25, %27
  %31 = trunc i64 %30 to i32
  %.not.i = icmp eq i32 %31, 0
  br i1 %.not.i, label %_ZN4llvm15DwarfExpression10addOpPieceEjj.exit, label %32

32:                                               ; preds = %29
  %33 = and i32 %31, 7
  %or.cond.i = icmp eq i32 %33, 0
  %34 = load ptr, ptr %0, align 8
  %35 = load ptr, ptr %34, align 8
  br i1 %or.cond.i, label %41, label %36

36:                                               ; preds = %32
  call void %35(ptr noundef nonnull align 8 dereferenceable(88) %0, i8 noundef zeroext -99, ptr noundef null) #13
  %37 = and i64 %30, 4294967295
  %38 = load ptr, ptr %0, align 8
  %39 = getelementptr inbounds i8, ptr %38, i64 16
  %40 = load ptr, ptr %39, align 8
  call void %40(ptr noundef nonnull align 8 dereferenceable(88) %0, i64 noundef %37) #13
  br label %44

41:                                               ; preds = %32
  call void %35(ptr noundef nonnull align 8 dereferenceable(88) %0, i8 noundef zeroext -109, ptr noundef null) #13
  %42 = lshr i64 %30, 3
  %43 = and i64 %42, 536870911
  br label %44

44:                                               ; preds = %41, %36
  %.sink = phi i64 [ %43, %41 ], [ 0, %36 ]
  %45 = load ptr, ptr %0, align 8
  %46 = getelementptr inbounds i8, ptr %45, i64 16
  %47 = load ptr, ptr %46, align 8
  call void %47(ptr noundef nonnull align 8 dereferenceable(88) %0, i64 noundef %.sink) #13
  br label %_ZN4llvm15DwarfExpression10addOpPieceEjj.exit

_ZN4llvm15DwarfExpression10addOpPieceEjj.exit:    ; preds = %44, %29, %17
  store i64 %25, ptr %26, align 8
  br label %48

48:                                               ; preds = %2, %5, %_ZN4llvm15DwarfExpression10addOpPieceEjj.exit
  ret void
}